; ModuleID = '30/1093.c'
source_filename = "30/1093.c"
target datalayout = "e-m:e-p270:32:32-p271:32:32-p272:64:64-i64:64-f80:128-n8:16:32:64-S128"
target triple = "x86_64-pc-linux-gnu"

@.str = private unnamed_addr constant [3 x i8] c"%d\00", align 1
@.str.1 = private unnamed_addr constant [4 x i8] c"%u\0A\00", align 1

; Function Attrs: noinline nounwind uwtable
define dso_local i32 @main() #0 {
  %1 = alloca i32, align 4
  %2 = alloca i32, align 4
  %3 = alloca i32, align 4
  %4 = alloca i32, align 4
  store i32 0, i32* %1, align 4
  %5 = call i32 (i8*, ...) @__isoc99_scanf(i8* getelementptr inbounds ([3 x i8], [3 x i8]* @.str, i64 0, i64 0), i32* %2)
  store i32 0, i32* %4, align 4
  store i32 1, i32* %3, align 4
  br label %6

6:                                                ; preds = %52, %0
  %7 = load i32, i32* %3, align 4
  %8 = load i32, i32* %2, align 4
  %9 = icmp sle i32 %7, %8
  br i1 %9, label %10, label %55

10:                                               ; preds = %6
  %11 = load i32, i32* %2, align 4
  %12 = icmp slt i32 %11, 100
  br i1 %12, label %13, label %51

13:                                               ; preds = %10
  %14 = load i32, i32* %2, align 4
  %15 = icmp sgt i32 %14, 0
  br i1 %15, label %16, label %51

16:                                               ; preds = %13
  %17 = load i32, i32* %3, align 4
  %18 = srem i32 %17, 7
  %19 = icmp eq i32 %18, 0
  br i1 %19, label %20, label %23

20:                                               ; preds = %16
  %21 = load i32, i32* %4, align 4
  %22 = add i32 %21, 0
  store i32 %22, i32* %4, align 4
  br label %50

23:                                               ; preds = %16
  %24 = load i32, i32* %3, align 4
  %25 = sub nsw i32 %24, 7
  %26 = srem i32 %25, 10
  %27 = icmp eq i32 %26, 0
  br i1 %27, label %28, label %31

28:                                               ; preds = %23
  %29 = load i32, i32* %4, align 4
  %30 = add i32 %29, 0
  store i32 %30, i32* %4, align 4
  br label %49

31:                                               ; preds = %23
  %32 = load i32, i32* %3, align 4
  %33 = sub nsw i32 %32, 70
  %34 = icmp slt i32 %33, 10
  br i1 %34, label %35, label %42

35:                                               ; preds = %31
  %36 = load i32, i32* %3, align 4
  %37 = sub nsw i32 %36, 70
  %38 = icmp sgt i32 %37, 0
  br i1 %38, label %39, label %42

39:                                               ; preds = %35
  %40 = load i32, i32* %4, align 4
  %41 = add i32 %40, 0
  store i32 %41, i32* %4, align 4
  br label %48

42:                                               ; preds = %35, %31
  %43 = load i32, i32* %3, align 4
  %44 = load i32, i32* %3, align 4
  %45 = mul nsw i32 %43, %44
  %46 = load i32, i32* %4, align 4
  %47 = add i32 %46, %45
  store i32 %47, i32* %4, align 4
  br label %48

48:                                               ; preds = %42, %39
  br label %49

49:                                               ; preds = %48, %28
  br label %50

50:                                               ; preds = %49, %20
  br label %51

51:                                               ; preds = %50, %13, %10
  br label %52

52:                                               ; preds = %51
  %53 = load i32, i32* %3, align 4
  %54 = add nsw i32 %53, 1
  store i32 %54, i32* %3, align 4
  br label %6

55:                                               ; preds = %6
  %56 = load i32, i32* %4, align 4
  %57 = call i32 (i8*, ...) @printf(i8* getelementptr inbounds ([4 x i8], [4 x i8]* @.str.1, i64 0, i64 0), i32 %56)
  ret i32 0
}

declare dso_local i32 @__isoc99_scanf(i8*, ...) #1

declare dso_local i32 @printf(i8*, ...) #1


!llvm.module.flags = !{!0}
!llvm.ident = !{!1}

!0 = !{i32 1, !"wchar_size", i32 4}
!1 = !{!"clang version 10.0.0-4ubuntu1 "}
